target datalayout = "e-m:e-p270:32:32-p271:32:32-p272:64:64-i64:64-i128:128-f80:128-n8:16:32:64-S128"
target triple = "x86_64-pc-linux-gnu"

%struct.CSzCoderInfo = type { i32, i32, i64, %struct.CBuf }
%struct.CBuf = type { ptr, i64 }
%struct.CSzFolder = type { ptr, ptr, ptr, ptr, i32, i32, i32, i32, i32, i32 }
%struct.ISzAlloc = type { ptr, ptr }
%struct.CSzBindPair = type { i32, i32 }
%struct.CSzAr = type { ptr, ptr, ptr, ptr, ptr, i32, i32, i32 }

; Function Attrs: nounwind uwtable
define i32 @SzFolder_FindBindPairForOutStream(ptr noundef %0, i32 noundef %1) #0 {
  %3 = alloca i32, align 4
  %4 = alloca ptr, align 8
  %5 = alloca i32, align 4
  %6 = alloca i32, align 4
  store ptr %0, ptr %4, align 8
  store i32 %1, ptr %5, align 4
  store i32 0, ptr %6, align 4
  br label %7

7:                                                ; preds = %27, %2
  %8 = load i32, ptr %6, align 4
  %9 = load ptr, ptr %4, align 8
  %10 = getelementptr inbounds %struct.CSzFolder, ptr %9, i32 0, i32 5
  %11 = load i32, ptr %10, align 4
  %12 = icmp ult i32 %8, %11
  br i1 %12, label %13, label %30

13:                                               ; preds = %7
  %14 = load ptr, ptr %4, align 8
  %15 = getelementptr inbounds %struct.CSzFolder, ptr %14, i32 0, i32 1
  %16 = load ptr, ptr %15, align 8
  %17 = load i32, ptr %6, align 4
  %18 = zext i32 %17 to i64
  %19 = getelementptr inbounds %struct.CSzBindPair, ptr %16, i64 %18
  %20 = getelementptr inbounds %struct.CSzBindPair, ptr %19, i32 0, i32 1
  %21 = load i32, ptr %20, align 4
  %22 = load i32, ptr %5, align 4
  %23 = icmp eq i32 %21, %22
  br i1 %23, label %24, label %26

24:                                               ; preds = %13
  %25 = load i32, ptr %6, align 4
  store i32 %25, ptr %3, align 4
  br label %31

26:                                               ; preds = %13
  br label %27

27:                                               ; preds = %26
  %28 = load i32, ptr %6, align 4
  %29 = add i32 %28, 1
  store i32 %29, ptr %6, align 4
  br label %7

30:                                               ; preds = %7
  store i32 -1, ptr %3, align 4
  br label %31

31:                                               ; preds = %30, %24
  %32 = load i32, ptr %3, align 4
  ret i32 %32
}

; Function Attrs: nounwind uwtable
define i32 @SzFolder_GetNumOutStreams(ptr noundef %0) #0 {
  %2 = alloca ptr, align 8
  %3 = alloca i32, align 4
  %4 = alloca i32, align 4
  store ptr %0, ptr %2, align 8
  store i32 0, ptr %3, align 4
  store i32 0, ptr %4, align 4
  br label %5

5:                                                ; preds = %22, %1
  %6 = load i32, ptr %4, align 4
  %7 = load ptr, ptr %2, align 8
  %8 = getelementptr inbounds %struct.CSzFolder, ptr %7, i32 0, i32 4
  %9 = load i32, ptr %8, align 8
  %10 = icmp ult i32 %6, %9
  br i1 %10, label %11, label %25

11:                                               ; preds = %5
  %12 = load ptr, ptr %2, align 8
  %13 = getelementptr inbounds %struct.CSzFolder, ptr %12, i32 0, i32 0
  %14 = load ptr, ptr %13, align 8
  %15 = load i32, ptr %4, align 4
  %16 = zext i32 %15 to i64
  %17 = getelementptr inbounds %struct.CSzCoderInfo, ptr %14, i64 %16
  %18 = getelementptr inbounds %struct.CSzCoderInfo, ptr %17, i32 0, i32 1
  %19 = load i32, ptr %18, align 4
  %20 = load i32, ptr %3, align 4
  %21 = add i32 %20, %19
  store i32 %21, ptr %3, align 4
  br label %22

22:                                               ; preds = %11
  %23 = load i32, ptr %4, align 4
  %24 = add i32 %23, 1
  store i32 %24, ptr %4, align 4
  br label %5

25:                                               ; preds = %5
  %26 = load i32, ptr %3, align 4
  ret i32 %26
}

; Function Attrs: nounwind uwtable
define i64 @SzFolder_GetUnpackSize(ptr noundef %0) #0 {
  %2 = alloca i64, align 8
  %3 = alloca ptr, align 8
  %4 = alloca i32, align 4
  store ptr %0, ptr %3, align 8
  %5 = load ptr, ptr %3, align 8
  %6 = call i32 @SzFolder_GetNumOutStreams(ptr noundef %5)
  store i32 %6, ptr %4, align 4
  %7 = load i32, ptr %4, align 4
  %8 = icmp eq i32 %7, 0
  br i1 %8, label %9, label %10

9:                                                ; preds = %1
  store i64 0, ptr %2, align 8
  br label %34

10:                                               ; preds = %1
  %11 = load i32, ptr %4, align 4
  %12 = add nsw i32 %11, -1
  store i32 %12, ptr %4, align 4
  br label %13

13:                                               ; preds = %30, %10
  %14 = load i32, ptr %4, align 4
  %15 = icmp sge i32 %14, 0
  br i1 %15, label %16, label %33

16:                                               ; preds = %13
  %17 = load ptr, ptr %3, align 8
  %18 = load i32, ptr %4, align 4
  %19 = call i32 @SzFolder_FindBindPairForOutStream(ptr noundef %17, i32 noundef %18)
  %20 = icmp slt i32 %19, 0
  br i1 %20, label %21, label %29

21:                                               ; preds = %16
  %22 = load ptr, ptr %3, align 8
  %23 = getelementptr inbounds %struct.CSzFolder, ptr %22, i32 0, i32 3
  %24 = load ptr, ptr %23, align 8
  %25 = load i32, ptr %4, align 4
  %26 = sext i32 %25 to i64
  %27 = getelementptr inbounds i64, ptr %24, i64 %26
  %28 = load i64, ptr %27, align 8
  store i64 %28, ptr %2, align 8
  br label %34

29:                                               ; preds = %16
  br label %30

30:                                               ; preds = %29
  %31 = load i32, ptr %4, align 4
  %32 = add nsw i32 %31, -1
  store i32 %32, ptr %4, align 4
  br label %13

33:                                               ; preds = %13
  store i64 0, ptr %2, align 8
  br label %34

34:                                               ; preds = %33, %21, %9
  %35 = load i64, ptr %2, align 8
  ret i64 %35
}

; Function Attrs: nounwind uwtable
define internal i32 @SzReadAndDecodePackedStreams2(ptr noundef %0, ptr noundef %1, ptr noundef %2, i64 noundef %3, ptr noundef %4, ptr noundef %5, ptr noundef %6, ptr noundef %7, ptr noundef %8) #0 {
  %10 = alloca i32, align 4
  %11 = alloca ptr, align 8
  %12 = alloca ptr, align 8
  %13 = alloca ptr, align 8
  %14 = alloca i64, align 8
  %15 = alloca ptr, align 8
  %16 = alloca ptr, align 8
  %17 = alloca ptr, align 8
  %18 = alloca ptr, align 8
  %19 = alloca ptr, align 8
  %20 = alloca i32, align 4
  %21 = alloca i64, align 8
  %22 = alloca ptr, align 8
  %23 = alloca i64, align 8
  %24 = alloca i32, align 4
  %25 = alloca i32, align 4
  %26 = alloca i32, align 4
  %27 = alloca i32, align 4
  store ptr %0, ptr %11, align 8
  store ptr %1, ptr %12, align 8
  store ptr %2, ptr %13, align 8
  store i64 %3, ptr %14, align 8
  store ptr %4, ptr %15, align 8
  store ptr %5, ptr %16, align 8
  store ptr %6, ptr %17, align 8
  store ptr %7, ptr %18, align 8
  store ptr %8, ptr %19, align 8
  store i32 0, ptr %20, align 4
  %28 = load ptr, ptr %12, align 8
  %29 = load ptr, ptr %15, align 8
  %30 = load ptr, ptr %16, align 8
  %31 = load ptr, ptr %17, align 8
  %32 = load ptr, ptr %18, align 8
  %33 = load ptr, ptr %19, align 8
  %34 = load ptr, ptr %19, align 8
  %35 = call i32 @SzReadStreamsInfo(ptr noundef %28, ptr noundef %21, ptr noundef %29, ptr noundef %20, ptr noundef %30, ptr noundef %31, ptr noundef %32, ptr noundef %33, ptr noundef %34)
  store i32 %35, ptr %25, align 4
  %36 = load i32, ptr %25, align 4
  %37 = icmp ne i32 %36, 0
  br i1 %37, label %38, label %40

38:                                               ; preds = %9
  %39 = load i32, ptr %25, align 4
  store i32 %39, ptr %10, align 4
  br label %105

40:                                               ; preds = %9
  %41 = load i64, ptr %14, align 8
  %42 = load i64, ptr %21, align 8
  %43 = add i64 %42, %41
  store i64 %43, ptr %21, align 8
  %44 = load ptr, ptr %15, align 8
  %45 = getelementptr inbounds %struct.CSzAr, ptr %44, i32 0, i32 6
  %46 = load i32, ptr %45, align 4
  %47 = icmp ne i32 %46, 1
  br i1 %47, label %48, label %49

48:                                               ; preds = %40
  store i32 16, ptr %10, align 4
  br label %105

49:                                               ; preds = %40
  %50 = load ptr, ptr %15, align 8
  %51 = getelementptr inbounds %struct.CSzAr, ptr %50, i32 0, i32 3
  %52 = load ptr, ptr %51, align 8
  store ptr %52, ptr %22, align 8
  %53 = load ptr, ptr %22, align 8
  %54 = call i64 @SzFolder_GetUnpackSize(ptr noundef %53)
  store i64 %54, ptr %23, align 8
  %55 = load ptr, ptr %11, align 8
  %56 = load i64, ptr %21, align 8
  %57 = call i32 @LookInStream_SeekTo(ptr noundef %55, i64 noundef %56)
  store i32 %57, ptr %26, align 4
  %58 = load i32, ptr %26, align 4
  %59 = icmp ne i32 %58, 0
  br i1 %59, label %60, label %62

60:                                               ; preds = %49
  %61 = load i32, ptr %26, align 4
  store i32 %61, ptr %10, align 4
  br label %105

62:                                               ; preds = %49
  %63 = load ptr, ptr %13, align 8
  %64 = load i64, ptr %23, align 8
  %65 = load ptr, ptr %19, align 8
  %66 = call i32 @Buf_Create(ptr noundef %63, i64 noundef %64, ptr noundef %65)
  %67 = icmp ne i32 %66, 0
  br i1 %67, label %69, label %68

68:                                               ; preds = %62
  store i32 2, ptr %10, align 4
  br label %105

69:                                               ; preds = %62
  %70 = load ptr, ptr %22, align 8
  %71 = load ptr, ptr %15, align 8
  %72 = getelementptr inbounds %struct.CSzAr, ptr %71, i32 0, i32 0
  %73 = load ptr, ptr %72, align 8
  %74 = load ptr, ptr %11, align 8
  %75 = load i64, ptr %21, align 8
  %76 = load ptr, ptr %13, align 8
  %77 = getelementptr inbounds %struct.CBuf, ptr %76, i32 0, i32 0
  %78 = load ptr, ptr %77, align 8
  %79 = load i64, ptr %23, align 8
  %80 = load ptr, ptr %19, align 8
  %81 = call i32 @SzFolder_Decode(ptr noundef %70, ptr noundef %73, ptr noundef %74, i64 noundef %75, ptr noundef %78, i64 noundef %79, ptr noundef %80)
  store i32 %81, ptr %24, align 4
  %82 = load i32, ptr %24, align 4
  store i32 %82, ptr %27, align 4
  %83 = load i32, ptr %27, align 4
  %84 = icmp ne i32 %83, 0
  br i1 %84, label %85, label %87

85:                                               ; preds = %69
  %86 = load i32, ptr %27, align 4
  store i32 %86, ptr %10, align 4
  br label %105

87:                                               ; preds = %69
  %88 = load ptr, ptr %22, align 8
  %89 = getelementptr inbounds %struct.CSzFolder, ptr %88, i32 0, i32 7
  %90 = load i32, ptr %89, align 4
  %91 = icmp ne i32 %90, 0
  br i1 %91, label %92, label %104

92:                                               ; preds = %87
  %93 = load ptr, ptr %13, align 8
  %94 = getelementptr inbounds %struct.CBuf, ptr %93, i32 0, i32 0
  %95 = load ptr, ptr %94, align 8
  %96 = load i64, ptr %23, align 8
  %97 = call i32 @CrcCalc(ptr noundef %95, i64 noundef %96)
  %98 = load ptr, ptr %22, align 8
  %99 = getelementptr inbounds %struct.CSzFolder, ptr %98, i32 0, i32 8
  %100 = load i32, ptr %99, align 8
  %101 = icmp ne i32 %97, %100
  br i1 %101, label %102, label %103

102:                                              ; preds = %92
  store i32 3, ptr %10, align 4
  br label %105

103:                                              ; preds = %92
  br label %104

104:                                              ; preds = %103, %87
  store i32 0, ptr %10, align 4
  br label %105

105:                                              ; preds = %104, %102, %85, %68, %60, %48, %38
  %106 = load i32, ptr %10, align 4
  ret i32 %106
}

; Function Attrs: nounwind uwtable
define void @SzAr_Init(ptr noundef %0) #0 {
  %2 = alloca ptr, align 8
  store ptr %0, ptr %2, align 8
  %3 = load ptr, ptr %2, align 8
  %4 = getelementptr inbounds %struct.CSzAr, ptr %3, i32 0, i32 0
  store ptr null, ptr %4, align 8
  %5 = load ptr, ptr %2, align 8
  %6 = getelementptr inbounds %struct.CSzAr, ptr %5, i32 0, i32 1
  store ptr null, ptr %6, align 8
  %7 = load ptr, ptr %2, align 8
  %8 = getelementptr inbounds %struct.CSzAr, ptr %7, i32 0, i32 2
  store ptr null, ptr %8, align 8
  %9 = load ptr, ptr %2, align 8
  %10 = getelementptr inbounds %struct.CSzAr, ptr %9, i32 0, i32 3
  store ptr null, ptr %10, align 8
  %11 = load ptr, ptr %2, align 8
  %12 = getelementptr inbounds %struct.CSzAr, ptr %11, i32 0, i32 4
  store ptr null, ptr %12, align 8
  %13 = load ptr, ptr %2, align 8
  %14 = getelementptr inbounds %struct.CSzAr, ptr %13, i32 0, i32 5
  store i32 0, ptr %14, align 8
  %15 = load ptr, ptr %2, align 8
  %16 = getelementptr inbounds %struct.CSzAr, ptr %15, i32 0, i32 6
  store i32 0, ptr %16, align 4
  %17 = load ptr, ptr %2, align 8
  %18 = getelementptr inbounds %struct.CSzAr, ptr %17, i32 0, i32 7
  store i32 0, ptr %18, align 8
  ret void
}

; Function Attrs: nounwind uwtable
define internal i32 @SzReadAndDecodePackedStreams(ptr noundef %0, ptr noundef %1, ptr noundef %2, i64 noundef %3, ptr noundef %4) #0 {
  %6 = alloca ptr, align 8
  %7 = alloca ptr, align 8
  %8 = alloca ptr, align 8
  %9 = alloca i64, align 8
  %10 = alloca ptr, align 8
  %11 = alloca %struct.CSzAr, align 8
  %12 = alloca ptr, align 8
  %13 = alloca ptr, align 8
  %14 = alloca ptr, align 8
  %15 = alloca i32, align 4
  store ptr %0, ptr %6, align 8
  store ptr %1, ptr %7, align 8
  store ptr %2, ptr %8, align 8
  store i64 %3, ptr %9, align 8
  store ptr %4, ptr %10, align 8
  store ptr null, ptr %12, align 8
  store ptr null, ptr %13, align 8
  store ptr null, ptr %14, align 8
  call void @SzAr_Init(ptr noundef %11)
  %16 = load ptr, ptr %6, align 8
  %17 = load ptr, ptr %7, align 8
  %18 = load ptr, ptr %8, align 8
  %19 = load i64, ptr %9, align 8
  %20 = load ptr, ptr %10, align 8
  %21 = call i32 @SzReadAndDecodePackedStreams2(ptr noundef %16, ptr noundef %17, ptr noundef %18, i64 noundef %19, ptr noundef %11, ptr noundef %12, ptr noundef %13, ptr noundef %14, ptr noundef %20)
  store i32 %21, ptr %15, align 4
  %22 = load ptr, ptr %10, align 8
  call void @SzAr_Free(ptr noundef %11, ptr noundef %22)
  %23 = load ptr, ptr %10, align 8
  %24 = getelementptr inbounds %struct.ISzAlloc, ptr %23, i32 0, i32 1
  %25 = load ptr, ptr %24, align 8
  %26 = load ptr, ptr %10, align 8
  %27 = load ptr, ptr %12, align 8
  call void %25(ptr noundef %26, ptr noundef %27)
  %28 = load ptr, ptr %10, align 8
  %29 = getelementptr inbounds %struct.ISzAlloc, ptr %28, i32 0, i32 1
  %30 = load ptr, ptr %29, align 8
  %31 = load ptr, ptr %10, align 8
  %32 = load ptr, ptr %13, align 8
  call void %30(ptr noundef %31, ptr noundef %32)
  %33 = load ptr, ptr %10, align 8
  %34 = getelementptr inbounds %struct.ISzAlloc, ptr %33, i32 0, i32 1
  %35 = load ptr, ptr %34, align 8
  %36 = load ptr, ptr %10, align 8
  %37 = load ptr, ptr %14, align 8
  call void %35(ptr noundef %36, ptr noundef %37)
  %38 = load i32, ptr %15, align 4
  ret i32 %38
}