; Function Attrs: nounwind uwtable
define internal fastcc i32 @SzReadAndDecodePackedStreams(ptr noundef %0, ptr noundef nonnull %1, ptr noundef nonnull %2, i64 noundef %3, ptr noundef %4) unnamed_addr #0 {
  %6 = alloca i32, align 4
  %7 = alloca i64, align 8
  %8 = alloca %struct.CSzAr, align 8
  %9 = alloca ptr, align 8
  %10 = alloca ptr, align 8
  %11 = alloca ptr, align 8
  store ptr null, ptr %9, align 8
  store ptr null, ptr %10, align 8
  store ptr null, ptr %11, align 8
  call void @llvm.memset.p0.i64(ptr noundef nonnull align 8 dereferenceable(52) %8, i8 0, i64 52, i1 false)
  call void @llvm.lifetime.start.p0(i64 4, ptr nonnull %6)
  call void @llvm.lifetime.start.p0(i64 8, ptr nonnull %7)
  store i32 0, ptr %6, align 4
  %12 = call fastcc i32 @SzReadStreamsInfo(ptr noundef nonnull %1, ptr noundef nonnull %7, ptr noundef nonnull %8, ptr noundef %6, ptr noundef nonnull %9, ptr noundef nonnull %10, ptr noundef nonnull %11, ptr noundef %4, ptr noundef %4)
  %.not.i = icmp eq i32 %12, 0
  br i1 %.not.i, label %13, label %SzReadAndDecodePackedStreams2.exit

13:                                               ; preds = %5
  %14 = load i64, ptr %7, align 8
  %15 = add i64 %14, %3
  %16 = getelementptr inbounds nuw i8, ptr %8, i64 44
  %17 = load i32, ptr %16, align 4
  %.not35.i = icmp eq i32 %17, 1
  br i1 %.not35.i, label %18, label %SzReadAndDecodePackedStreams2.exit

18:                                               ; preds = %13
  %19 = getelementptr inbounds nuw i8, ptr %8, i64 24
  %20 = load ptr, ptr %19, align 8
  %21 = getelementptr inbounds nuw i8, ptr %20, i64 32
  %22 = load i32, ptr %21, align 8
  %.not.i.i.i = icmp eq i32 %22, 0
  br i1 %.not.i.i.i, label %SzFolder_GetUnpackSize.exit.i, label %.lr.ph.i.i.i

.lr.ph.i.i.i:                                     ; preds = %18
  %23 = load ptr, ptr %20, align 8
  %wide.trip.count.i.i.i = zext i32 %22 to i64
  br label %24

24:                                               ; preds = %24, %.lr.ph.i.i.i
  %indvars.iv.i.i.i = phi i64 [ 0, %.lr.ph.i.i.i ], [ %indvars.iv.next.i.i.i, %24 ]
  %.067.i.i.i = phi i32 [ 0, %.lr.ph.i.i.i ], [ %27, %24 ]
  %25 = getelementptr inbounds nuw %struct.CSzCoderInfo, ptr %23, i64 %indvars.iv.i.i.i, i32 1
  %26 = load i32, ptr %25, align 4
  %27 = add i32 %26, %.067.i.i.i
  %indvars.iv.next.i.i.i = add nuw nsw i64 %indvars.iv.i.i.i, 1
  %exitcond.not.i.i.i = icmp eq i64 %indvars.iv.next.i.i.i, %wide.trip.count.i.i.i
  br i1 %exitcond.not.i.i.i, label %SzFolder_GetNumOutStreams.exit.i.i, label %24

SzFolder_GetNumOutStreams.exit.i.i:               ; preds = %24
  %28 = icmp eq i32 %27, 0
  br i1 %28, label %SzFolder_GetUnpackSize.exit.i, label %.preheader.i.i

.preheader.i.i:                                   ; preds = %SzFolder_GetNumOutStreams.exit.i.i
  %29 = getelementptr inbounds nuw i8, ptr %20, i64 36
  %30 = getelementptr inbounds nuw i8, ptr %20, i64 8
  br label %31

31:                                               ; preds = %SzFolder_FindBindPairForOutStream.exit.i.i, %.preheader.i.i
  %.0.in.i.i = phi i32 [ %.0.i.i, %SzFolder_FindBindPairForOutStream.exit.i.i ], [ %27, %.preheader.i.i ]
  %.0.i.i = add nsw i32 %.0.in.i.i, -1
  %32 = icmp sgt i32 %.0.in.i.i, 0
  br i1 %32, label %33, label %SzFolder_GetUnpackSize.exit.i

33:                                               ; preds = %31
  %34 = load i32, ptr %29, align 4
  %.not.i11.i.i = icmp eq i32 %34, 0
  br i1 %.not.i11.i.i, label %SzFolder_FindBindPairForOutStream.exit.thread.i.i, label %.lr.ph.i12.i.i

.lr.ph.i12.i.i:                                   ; preds = %33
  %35 = load ptr, ptr %30, align 8
  %wide.trip.count.i13.i.i = zext i32 %34 to i64
  br label %36

36:                                               ; preds = %40, %.lr.ph.i12.i.i
  %indvars.iv.i14.i.i = phi i64 [ 0, %.lr.ph.i12.i.i ], [ %indvars.iv.next.i15.i.i, %40 ]
  %37 = getelementptr inbounds nuw %struct.CSzBindPair, ptr %35, i64 %indvars.iv.i14.i.i, i32 1
  %38 = load i32, ptr %37, align 4
  %39 = icmp eq i32 %38, %.0.i.i
  br i1 %39, label %SzFolder_FindBindPairForOutStream.exit.i.i, label %40

40:                                               ; preds = %36
  %indvars.iv.next.i15.i.i = add nuw nsw i64 %indvars.iv.i14.i.i, 1
  %exitcond.not.i16.i.i = icmp eq i64 %indvars.iv.next.i15.i.i, %wide.trip.count.i13.i.i
  br i1 %exitcond.not.i16.i.i, label %SzFolder_FindBindPairForOutStream.exit.thread.i.i, label %36

SzFolder_FindBindPairForOutStream.exit.i.i:       ; preds = %36
  %41 = and i64 %indvars.iv.i14.i.i, 2147483648
  %.not.i.i = icmp eq i64 %41, 0
  br i1 %.not.i.i, label %31, label %SzFolder_FindBindPairForOutStream.exit.thread.i.i

SzFolder_FindBindPairForOutStream.exit.thread.i.i: ; preds = %SzFolder_FindBindPairForOutStream.exit.i.i, %33, %40
  %42 = getelementptr inbounds nuw i8, ptr %20, i64 24
  %43 = load ptr, ptr %42, align 8
  %44 = zext nneg i32 %.0.i.i to i64
  %45 = getelementptr inbounds nuw i64, ptr %43, i64 %44
  %46 = load i64, ptr %45, align 8
  br label %SzFolder_GetUnpackSize.exit.i

SzFolder_GetUnpackSize.exit.i:                    ; preds = %31, %SzFolder_FindBindPairForOutStream.exit.thread.i.i, %SzFolder_GetNumOutStreams.exit.i.i, %18
  %.09.i.i = phi i64 [ %46, %SzFolder_FindBindPairForOutStream.exit.thread.i.i ], [ 0, %SzFolder_GetNumOutStreams.exit.i.i ], [ 0, %18 ], [ 0, %31 ]
  %47 = tail call i32 @LookInStream_SeekTo(ptr noundef %0, i64 noundef %15) #11
  %.not36.i = icmp eq i32 %47, 0
  br i1 %.not36.i, label %48, label %SzReadAndDecodePackedStreams2.exit

48:                                               ; preds = %SzFolder_GetUnpackSize.exit.i
  %49 = tail call i32 @Buf_Create(ptr noundef nonnull %2, i64 noundef %.09.i.i, ptr noundef %4) #11
  %.not37.i = icmp eq i32 %49, 0
  br i1 %.not37.i, label %SzReadAndDecodePackedStreams2.exit, label %50

50:                                               ; preds = %48
  %51 = load ptr, ptr %8, align 8
  %52 = load ptr, ptr %2, align 8
  %53 = tail call i32 @SzFolder_Decode(ptr noundef %20, ptr noundef %51, ptr noundef %0, i64 noundef %15, ptr noundef %52, i64 noundef %.09.i.i, ptr noundef %4) #11
  %.not38.i = icmp eq i32 %53, 0
  br i1 %.not38.i, label %54, label %SzReadAndDecodePackedStreams2.exit

54:                                               ; preds = %50
  %55 = getelementptr inbounds nuw i8, ptr %20, i64 44
  %56 = load i32, ptr %55, align 4
  %.not39.i = icmp eq i32 %56, 0
  br i1 %.not39.i, label %62, label %57

57:                                               ; preds = %54
  %58 = load ptr, ptr %2, align 8
  %59 = tail call i32 @CrcCalc(ptr noundef %58, i64 noundef %.09.i.i) #11
  %60 = getelementptr inbounds nuw i8, ptr %20, i64 48
  %61 = load i32, ptr %60, align 8
  %.not40.i = icmp eq i32 %59, %61
  br i1 %.not40.i, label %62, label %SzReadAndDecodePackedStreams2.exit

62:                                               ; preds = %57, %54
  br label %SzReadAndDecodePackedStreams2.exit

SzReadAndDecodePackedStreams2.exit:               ; preds = %5, %13, %SzFolder_GetUnpackSize.exit.i, %48, %50, %57, %62
  %.0.i = phi i32 [ 0, %62 ], [ %12, %5 ], [ 16, %13 ], [ %47, %SzFolder_GetUnpackSize.exit.i ], [ 2, %48 ], [ %53, %50 ], [ 3, %57 ]
  call void @llvm.lifetime.end.p0(i64 4, ptr nonnull %6)
  call void @llvm.lifetime.end.p0(i64 8, ptr nonnull %7)
  call void @SzAr_Free(ptr noundef nonnull %8, ptr noundef %4)
  %63 = getelementptr inbounds nuw i8, ptr %4, i64 8
  %64 = load ptr, ptr %63, align 8
  %65 = load ptr, ptr %9, align 8
  tail call void %64(ptr noundef %4, ptr noundef %65) #11
  %66 = load ptr, ptr %63, align 8
  %67 = load ptr, ptr %10, align 8
  tail call void %66(ptr noundef %4, ptr noundef %67) #11
  %68 = load ptr, ptr %63, align 8
  %69 = load ptr, ptr %11, align 8
  tail call void %68(ptr noundef %4, ptr noundef %69) #11
  ret i32 %.0.i
}